target datalayout = "e-m:e-p270:32:32-p271:32:32-p272:64:64-i64:64-i128:128-f80:128-n8:16:32:64-S128"
target triple = "x86_64-pc-linux-gnu"

%struct.RBasic = type { i64, i64 }

@id_find_timezone = internal global i64 0, align 8
@rb_cFalseClass = external global i64, align 8
@rb_cNilClass = external global i64, align 8
@rb_cTrueClass = external global i64, align 8
@rb_cInteger = external global i64, align 8
@rb_cSymbol = external global i64, align 8
@rb_cFloat = external global i64, align 8

; Function Attrs: inlinehint nounwind sspstrong willreturn memory(none) uwtable
define internal zeroext i1 @RB_IMMEDIATE_P(i64 noundef %0) #5 {
  %2 = alloca i64, align 8
  store i64 %0, ptr %2, align 8, !tbaa !11
  %3 = load i64, ptr %2, align 8, !tbaa !11
  %4 = and i64 %3, 7
  %5 = icmp ne i64 %4, 0
  ret i1 %5
}

; Function Attrs: inlinehint nounwind sspstrong willreturn memory(none) uwtable
define internal zeroext i1 @RB_FLONUM_P(i64 noundef %0) #5 {
  %2 = alloca i64, align 8
  store i64 %0, ptr %2, align 8, !tbaa !11
  %3 = load i64, ptr %2, align 8, !tbaa !11
  %4 = and i64 %3, 3
  %5 = icmp eq i64 %4, 2
  ret i1 %5
}

; Function Attrs: inlinehint nounwind sspstrong willreturn memory(none) uwtable
define internal zeroext i1 @RB_STATIC_SYM_P(i64 noundef %0) #5 {
  %2 = alloca i64, align 8
  %3 = alloca i64, align 8
  store i64 %0, ptr %2, align 8, !tbaa !11
  call void @llvm.lifetime.start.p0(i64 8, ptr %3) #22
  store i64 255, ptr %3, align 8, !tbaa !11
  %4 = load i64, ptr %2, align 8, !tbaa !11
  %5 = and i64 %4, 255
  %6 = icmp eq i64 %5, 12
  call void @llvm.lifetime.end.p0(i64 8, ptr %3) #22
  ret i1 %6
}

; Function Attrs: inlinehint nounwind sspstrong willreturn memory(none) uwtable
define internal zeroext i1 @RB_FIXNUM_P(i64 noundef %0) #5 {
  %2 = alloca i64, align 8
  store i64 %0, ptr %2, align 8, !tbaa !11
  %3 = load i64, ptr %2, align 8, !tbaa !11
  %4 = and i64 %3, 1
  %5 = icmp ne i64 %4, 0
  ret i1 %5
}

; Function Attrs: inlinehint nounwind sspstrong willreturn memory(read) uwtable
define internal i64 @RBASIC_CLASS(i64 noundef %0) #10 {
  %2 = alloca i64, align 8
  store i64 %0, ptr %2, align 8, !tbaa !11
  %3 = load i64, ptr %2, align 8, !tbaa !11
  %4 = inttoptr i64 %3 to ptr
  %5 = getelementptr inbounds nuw %struct.RBasic, ptr %4, i32 0, i32 1
  %6 = load i64, ptr %5, align 8, !tbaa !80
  ret i64 %6
}

; Function Attrs: inlinehint nounwind sspstrong willreturn memory(none) uwtable
define internal zeroext i1 @RB_SPECIAL_CONST_P(i64 noundef %0) #5 {
  %2 = alloca i64, align 8
  store i64 %0, ptr %2, align 8, !tbaa !11
  %3 = load i64, ptr %2, align 8, !tbaa !11
  %4 = icmp eq i64 %3, 0
  br i1 %4, label %8, label %5

5:                                                ; preds = %1
  %6 = load i64, ptr %2, align 8, !tbaa !11
  %7 = call zeroext i1 @RB_IMMEDIATE_P(i64 noundef %6) #24
  br label %8

8:                                                ; preds = %5, %1
  %9 = phi i1 [ true, %1 ], [ %7, %5 ]
  ret i1 %9
}

; Function Attrs: inlinehint nounwind sspstrong willreturn memory(read) uwtable
define internal i64 @rb_class_of(i64 noundef %0) #10 {
  %2 = alloca i64, align 8
  %3 = alloca i64, align 8
  store i64 %0, ptr %3, align 8, !tbaa !11
  %4 = load i64, ptr %3, align 8, !tbaa !11
  %5 = call zeroext i1 @RB_SPECIAL_CONST_P(i64 noundef %4) #24
  br i1 %5, label %9, label %6

6:                                                ; preds = %1
  %7 = load i64, ptr %3, align 8, !tbaa !11
  %8 = call i64 @RBASIC_CLASS(i64 noundef %7) #25
  store i64 %8, ptr %2, align 8
  br label %46

9:                                                ; preds = %1
  %10 = load i64, ptr %3, align 8, !tbaa !11
  %11 = icmp eq i64 %10, 0
  br i1 %11, label %12, label %14

12:                                               ; preds = %9
  %13 = load i64, ptr @rb_cFalseClass, align 8, !tbaa !11
  store i64 %13, ptr %2, align 8
  br label %46

14:                                               ; preds = %9
  %15 = load i64, ptr %3, align 8, !tbaa !11
  %16 = icmp eq i64 %15, 4
  br i1 %16, label %17, label %19

17:                                               ; preds = %14
  %18 = load i64, ptr @rb_cNilClass, align 8, !tbaa !11
  store i64 %18, ptr %2, align 8
  br label %46

19:                                               ; preds = %14
  %20 = load i64, ptr %3, align 8, !tbaa !11
  %21 = icmp eq i64 %20, 20
  br i1 %21, label %22, label %24

22:                                               ; preds = %19
  %23 = load i64, ptr @rb_cTrueClass, align 8, !tbaa !11
  store i64 %23, ptr %2, align 8
  br label %46

24:                                               ; preds = %19
  %25 = load i64, ptr %3, align 8, !tbaa !11
  %26 = call zeroext i1 @RB_FIXNUM_P(i64 noundef %25) #24
  br i1 %26, label %27, label %29

27:                                               ; preds = %24
  %28 = load i64, ptr @rb_cInteger, align 8, !tbaa !11
  store i64 %28, ptr %2, align 8
  br label %46

29:                                               ; preds = %24
  %30 = load i64, ptr %3, align 8, !tbaa !11
  %31 = call zeroext i1 @RB_STATIC_SYM_P(i64 noundef %30) #24
  br i1 %31, label %32, label %34

32:                                               ; preds = %29
  %33 = load i64, ptr @rb_cSymbol, align 8, !tbaa !11
  store i64 %33, ptr %2, align 8
  br label %46

34:                                               ; preds = %29
  %35 = load i64, ptr %3, align 8, !tbaa !11
  %36 = call zeroext i1 @RB_FLONUM_P(i64 noundef %35) #24
  br i1 %36, label %37, label %39

37:                                               ; preds = %34
  %38 = load i64, ptr @rb_cFloat, align 8, !tbaa !11
  store i64 %38, ptr %2, align 8
  br label %46

39:                                               ; preds = %34
  br label %40

40:                                               ; preds = %39
  br label %41

41:                                               ; preds = %40
  br label %42

42:                                               ; preds = %41
  br label %43

43:                                               ; preds = %42
  br label %44

44:                                               ; preds = %43
  br label %45

45:                                               ; preds = %44
  unreachable

46:                                               ; preds = %37, %32, %27, %22, %17, %12, %6
  %47 = load i64, ptr %2, align 8
  ret i64 %47
}

; Function Attrs: nounwind sspstrong uwtable
define internal i64 @find_timezone(i64 noundef %0, i64 noundef %1) #0 {
  %3 = alloca i64, align 8
  %4 = alloca i64, align 8
  %5 = alloca i64, align 8
  store i64 %0, ptr %3, align 8, !tbaa !11
  store i64 %1, ptr %4, align 8, !tbaa !11
  call void @llvm.lifetime.start.p0(i64 8, ptr %5) #22
  %6 = load i64, ptr %3, align 8, !tbaa !11
  %7 = call i64 @rb_class_of(i64 noundef %6) #25
  store i64 %7, ptr %5, align 8, !tbaa !11
  %8 = load i64, ptr %5, align 8, !tbaa !11
  %9 = load i64, ptr @id_find_timezone, align 8, !tbaa !11
  %10 = call i64 @rb_check_funcall_default(i64 noundef %8, i64 noundef %9, i32 noundef 1, ptr noundef %4, i64 noundef 4)
  call void @llvm.lifetime.end.p0(i64 8, ptr %5) #22
  ret i64 %10
}

; Function Attrs: inlinehint nounwind sspstrong willreturn memory(none) uwtable
define internal zeroext i1 @RB_NIL_P(i64 noundef %0) #5 {
  %2 = alloca i64, align 8
  store i64 %0, ptr %2, align 8, !tbaa !11
  %3 = load i64, ptr %2, align 8, !tbaa !11
  %4 = icmp eq i64 %3, 4
  ret i1 %4
}

; Function Attrs: nounwind sspstrong uwtable
define internal i64 @time_zonelocal(i64 noundef %0, i64 noundef %1) #0 {
  %3 = alloca i64, align 8
  %4 = alloca i64, align 8
  %5 = alloca i64, align 8
  %6 = alloca i64, align 8
  %7 = alloca i32, align 4
  store i64 %0, ptr %4, align 8, !tbaa !11
  store i64 %1, ptr %5, align 8, !tbaa !11
  call void @llvm.lifetime.start.p0(i64 8, ptr %6) #22
  %8 = load i64, ptr %5, align 8, !tbaa !11
  store i64 %8, ptr %6, align 8, !tbaa !11
  %9 = load i64, ptr %6, align 8, !tbaa !11
  %10 = load i64, ptr %4, align 8, !tbaa !11
  %11 = call i32 @zone_localtime(i64 noundef %9, i64 noundef %10)
  %12 = icmp ne i32 %11, 0
  br i1 %12, label %13, label %15

13:                                               ; preds = %2
  %14 = load i64, ptr %4, align 8, !tbaa !11
  store i64 %14, ptr %3, align 8
  store i32 1, ptr %7, align 4
  br label %51

15:                                               ; preds = %2
  %16 = load i64, ptr %5, align 8, !tbaa !11
  %17 = call i64 @utc_offset_arg(i64 noundef %16)
  store i64 %17, ptr %5, align 8, !tbaa !11
  %18 = call zeroext i1 @RB_NIL_P(i64 noundef %17) #24
  br i1 %18, label %19, label %36

19:                                               ; preds = %15
  %20 = load i64, ptr %6, align 8, !tbaa !11
  store i64 %20, ptr %5, align 8, !tbaa !11
  %21 = load i64, ptr %4, align 8, !tbaa !11
  %22 = load i64, ptr %5, align 8, !tbaa !11
  %23 = call i64 @find_timezone(i64 noundef %21, i64 noundef %22)
  store i64 %23, ptr %6, align 8, !tbaa !11
  %24 = call zeroext i1 @RB_NIL_P(i64 noundef %23) #24
  br i1 %24, label %25, label %27

25:                                               ; preds = %19
  %26 = load i64, ptr %5, align 8, !tbaa !11
  call void @invalid_utc_offset(i64 noundef %26) #23
  unreachable

27:                                               ; preds = %19
  %28 = load i64, ptr %6, align 8, !tbaa !11
  %29 = load i64, ptr %4, align 8, !tbaa !11
  %30 = call i32 @zone_localtime(i64 noundef %28, i64 noundef %29)
  %31 = icmp ne i32 %30, 0
  br i1 %31, label %34, label %32

32:                                               ; preds = %27
  %33 = load i64, ptr %5, align 8, !tbaa !11
  call void @invalid_utc_offset(i64 noundef %33) #23
  unreachable

34:                                               ; preds = %27
  %35 = load i64, ptr %4, align 8, !tbaa !11
  store i64 %35, ptr %3, align 8
  store i32 1, ptr %7, align 4
  br label %51

36:                                               ; preds = %15
  %37 = load i64, ptr %5, align 8, !tbaa !11
  %38 = icmp eq i64 %37, 36
  br i1 %38, label %39, label %42

39:                                               ; preds = %36
  %40 = load i64, ptr %4, align 8, !tbaa !11
  %41 = call i64 @time_gmtime(i64 noundef %40)
  store i64 %41, ptr %3, align 8
  store i32 1, ptr %7, align 4
  br label %51

42:                                               ; preds = %36
  br label %43

43:                                               ; preds = %42
  %44 = load i64, ptr %5, align 8, !tbaa !11
  %45 = call i64 @validate_utc_offset(i64 noundef %44)
  %46 = load i64, ptr %4, align 8, !tbaa !11
  %47 = load i64, ptr %5, align 8, !tbaa !11
  %48 = call i64 @time_set_utc_offset(i64 noundef %46, i64 noundef %47)
  %49 = load i64, ptr %4, align 8, !tbaa !11
  %50 = call i64 @time_fixoff(i64 noundef %49)
  store i64 %50, ptr %3, align 8
  store i32 1, ptr %7, align 4
  br label %51

51:                                               ; preds = %43, %39, %34, %13
  call void @llvm.lifetime.end.p0(i64 8, ptr %6) #22
  %52 = load i64, ptr %3, align 8
  ret i64 %52
}