; Function Attrs: nounwind sspstrong uwtable
define internal fastcc noundef i64 @time_zonelocal(i64 noundef returned %0, i64 noundef %1) unnamed_addr #1 {
  %3 = alloca i64, align 8
  %4 = tail call fastcc i32 @zone_localtime(i64 noundef %1, i64 noundef %0)
  %.not = icmp eq i32 %4, 0
  br i1 %.not, label %5, label %36

5:                                                ; preds = %2
  %6 = tail call fastcc i64 @utc_offset_arg(i64 noundef %1)
  switch i64 %6, label %32 [
    i64 4, label %7
    i64 36, label %30
  ]

7:                                                ; preds = %5
  call void @llvm.lifetime.start.p0(i64 8, ptr nonnull %3)
  store i64 %1, ptr %3, align 8, !tbaa !11
  %8 = icmp eq i64 %0, 0
  %9 = and i64 %0, 7
  %10 = icmp ne i64 %9, 0
  %11 = or i1 %8, %10
  br i1 %11, label %15, label %12

12:                                               ; preds = %7
  %13 = inttoptr i64 %0 to ptr
  %14 = getelementptr inbounds nuw i8, ptr %13, i64 8
  br label %find_timezone.exit

15:                                               ; preds = %7
  switch i64 %0, label %18 [
    i64 0, label %find_timezone.exit
    i64 4, label %16
    i64 20, label %17
  ]

16:                                               ; preds = %15
  br label %find_timezone.exit

17:                                               ; preds = %15
  br label %find_timezone.exit

18:                                               ; preds = %15
  %19 = and i64 %0, 1
  %.not.i.i = icmp eq i64 %19, 0
  br i1 %.not.i.i, label %20, label %find_timezone.exit

20:                                               ; preds = %18
  %21 = and i64 %0, 254
  %22 = icmp eq i64 %21, 12
  %spec.select.i.i = select i1 %22, ptr @rb_cSymbol, ptr @rb_cFloat
  br label %find_timezone.exit

find_timezone.exit:                               ; preds = %12, %15, %16, %17, %18, %20
  %.0.in.i.i = phi ptr [ @rb_cNilClass, %16 ], [ @rb_cTrueClass, %17 ], [ %14, %12 ], [ @rb_cFalseClass, %15 ], [ @rb_cInteger, %18 ], [ %spec.select.i.i, %20 ]
  %.0.i.i = load i64, ptr %.0.in.i.i, align 8, !tbaa !11
  %23 = load i64, ptr @id_find_timezone, align 8, !tbaa !11
  %24 = call i64 @rb_check_funcall_default(i64 noundef %.0.i.i, i64 noundef %23, i32 noundef 1, ptr noundef nonnull %3, i64 noundef 4) #21
  call void @llvm.lifetime.end.p0(i64 8, ptr nonnull %3)
  %25 = icmp eq i64 %24, 4
  br i1 %25, label %26, label %27

26:                                               ; preds = %find_timezone.exit
  call fastcc void @invalid_utc_offset(i64 noundef %1) #23
  unreachable

27:                                               ; preds = %find_timezone.exit
  %28 = call fastcc i32 @zone_localtime(i64 noundef %24, i64 noundef %0)
  %.not21 = icmp eq i32 %28, 0
  br i1 %.not21, label %29, label %36

29:                                               ; preds = %27
  call fastcc void @invalid_utc_offset(i64 noundef %1) #23
  unreachable

30:                                               ; preds = %5
  %31 = tail call i64 @time_gmtime(i64 noundef %0)
  br label %36

32:                                               ; preds = %5
  %33 = tail call i64 @validate_utc_offset(i64 noundef %6)
  %34 = tail call fastcc i64 @time_set_utc_offset(i64 noundef %0, i64 noundef %6)
  %35 = tail call fastcc i64 @time_fixoff(i64 noundef %0)
  br label %36

36:                                               ; preds = %27, %2, %32, %30
  ret i64 %0
}